; ModuleID = '24/2201.c'
source_filename = "24/2201.c"
target datalayout = "e-m:e-p270:32:32-p271:32:32-p272:64:64-i64:64-f80:128-n8:16:32:64-S128"
target triple = "x86_64-pc-linux-gnu"

@.str = private unnamed_addr constant [7 x i8] c"%s\0A%s\0A\00", align 1

; Function Attrs: noinline nounwind uwtable
define dso_local void @main() #0 {
  %1 = alloca [20000 x i8], align 16
  %2 = alloca [100 x i8], align 16
  %3 = alloca [100 x i8], align 16
  %4 = alloca [100 x i8], align 16
  %5 = alloca i32, align 4
  %6 = alloca i32, align 4
  %7 = alloca i32, align 4
  %8 = alloca i32, align 4
  %9 = alloca i32, align 4
  store i32 1000, i32* %6, align 4
  store i32 0, i32* %7, align 4
  %10 = getelementptr inbounds [20000 x i8], [20000 x i8]* %1, i64 0, i64 0
  %11 = call i32 (i8*, ...) bitcast (i32 (...)* @gets to i32 (i8*, ...)*)(i8* %10)
  store i32 0, i32* %8, align 4
  br label %12

12:                                               ; preds = %86, %0
  store i32 0, i32* %9, align 4
  br label %13

13:                                               ; preds = %44, %12
  %14 = load i32, i32* %8, align 4
  %15 = sext i32 %14 to i64
  %16 = getelementptr inbounds [20000 x i8], [20000 x i8]* %1, i64 0, i64 %15
  %17 = load i8, i8* %16, align 1
  %18 = sext i8 %17 to i32
  %19 = icmp ne i32 %18, 32
  br i1 %19, label %20, label %34

20:                                               ; preds = %13
  %21 = load i32, i32* %8, align 4
  %22 = sext i32 %21 to i64
  %23 = getelementptr inbounds [20000 x i8], [20000 x i8]* %1, i64 0, i64 %22
  %24 = load i8, i8* %23, align 1
  %25 = sext i8 %24 to i32
  %26 = icmp ne i32 %25, 44
  br i1 %26, label %27, label %34

27:                                               ; preds = %20
  %28 = load i32, i32* %8, align 4
  %29 = sext i32 %28 to i64
  %30 = getelementptr inbounds [20000 x i8], [20000 x i8]* %1, i64 0, i64 %29
  %31 = load i8, i8* %30, align 1
  %32 = sext i8 %31 to i32
  %33 = icmp ne i32 %32, 0
  br label %34

34:                                               ; preds = %27, %20, %13
  %35 = phi i1 [ false, %20 ], [ false, %13 ], [ %33, %27 ]
  br i1 %35, label %36, label %49

36:                                               ; preds = %34
  %37 = load i32, i32* %8, align 4
  %38 = sext i32 %37 to i64
  %39 = getelementptr inbounds [20000 x i8], [20000 x i8]* %1, i64 0, i64 %38
  %40 = load i8, i8* %39, align 1
  %41 = load i32, i32* %9, align 4
  %42 = sext i32 %41 to i64
  %43 = getelementptr inbounds [100 x i8], [100 x i8]* %2, i64 0, i64 %42
  store i8 %40, i8* %43, align 1
  br label %44

44:                                               ; preds = %36
  %45 = load i32, i32* %9, align 4
  %46 = add nsw i32 %45, 1
  store i32 %46, i32* %9, align 4
  %47 = load i32, i32* %8, align 4
  %48 = add nsw i32 %47, 1
  store i32 %48, i32* %8, align 4
  br label %13

49:                                               ; preds = %34
  %50 = load i32, i32* %9, align 4
  %51 = sext i32 %50 to i64
  %52 = getelementptr inbounds [100 x i8], [100 x i8]* %2, i64 0, i64 %51
  store i8 0, i8* %52, align 1
  %53 = getelementptr inbounds [100 x i8], [100 x i8]* %2, i64 0, i64 0
  %54 = call i64 @strlen(i8* %53) #4
  %55 = trunc i64 %54 to i32
  store i32 %55, i32* %5, align 4
  %56 = load i32, i32* %5, align 4
  %57 = icmp eq i32 %56, 0
  br i1 %57, label %58, label %59

58:                                               ; preds = %49
  br label %86

59:                                               ; preds = %49
  %60 = load i32, i32* %7, align 4
  %61 = load i32, i32* %5, align 4
  %62 = icmp slt i32 %60, %61
  br i1 %62, label %63, label %68

63:                                               ; preds = %59
  %64 = load i32, i32* %5, align 4
  store i32 %64, i32* %7, align 4
  %65 = getelementptr inbounds [100 x i8], [100 x i8]* %3, i64 0, i64 0
  %66 = getelementptr inbounds [100 x i8], [100 x i8]* %2, i64 0, i64 0
  %67 = call i8* @strcpy(i8* %65, i8* %66) #5
  br label %68

68:                                               ; preds = %63, %59
  %69 = load i32, i32* %6, align 4
  %70 = load i32, i32* %5, align 4
  %71 = icmp sgt i32 %69, %70
  br i1 %71, label %72, label %77

72:                                               ; preds = %68
  %73 = load i32, i32* %5, align 4
  store i32 %73, i32* %6, align 4
  %74 = getelementptr inbounds [100 x i8], [100 x i8]* %4, i64 0, i64 0
  %75 = getelementptr inbounds [100 x i8], [100 x i8]* %2, i64 0, i64 0
  %76 = call i8* @strcpy(i8* %74, i8* %75) #5
  br label %77

77:                                               ; preds = %72, %68
  %78 = load i32, i32* %8, align 4
  %79 = sext i32 %78 to i64
  %80 = getelementptr inbounds [20000 x i8], [20000 x i8]* %1, i64 0, i64 %79
  %81 = load i8, i8* %80, align 1
  %82 = sext i8 %81 to i32
  %83 = icmp eq i32 %82, 0
  br i1 %83, label %84, label %85

84:                                               ; preds = %77
  br label %89

85:                                               ; preds = %77
  br label %86

86:                                               ; preds = %85, %58
  %87 = load i32, i32* %8, align 4
  %88 = add nsw i32 %87, 1
  store i32 %88, i32* %8, align 4
  br label %12

89:                                               ; preds = %84
  %90 = getelementptr inbounds [100 x i8], [100 x i8]* %3, i64 0, i64 0
  %91 = getelementptr inbounds [100 x i8], [100 x i8]* %4, i64 0, i64 0
  %92 = call i32 (i8*, ...) @printf(i8* getelementptr inbounds ([7 x i8], [7 x i8]* @.str, i64 0, i64 0), i8* %90, i8* %91)
  ret void
}

declare dso_local i32 @gets(...) #1

; Function Attrs: nounwind readonly
declare dso_local i64 @strlen(i8*) #2

; Function Attrs: nounwind
declare dso_local i8* @strcpy(i8*, i8*) #3

declare dso_local i32 @printf(i8*, ...) #1


!llvm.module.flags = !{!0}
!llvm.ident = !{!1}

!0 = !{i32 1, !"wchar_size", i32 4}
!1 = !{!"clang version 10.0.0-4ubuntu1 "}
